target datalayout = "e-m:e-p270:32:32-p271:32:32-p272:64:64-i64:64-i128:128-f80:128-n8:16:32:64-S128"
target triple = "x86_64-pc-linux-gnu"

@.str = private unnamed_addr constant [11 x i8] c"delta >= 0\00", align 1
@.str.1 = private unnamed_addr constant [114 x i8] c"generated/home/dtcxzyw/WorkSpace/Projects/compilers/llvm-opt-benchmark/bench/nghttp2/nghttp2/lib/nghttp2_helper.c\00", align 1
@__PRETTY_FUNCTION__.nghttp2_increase_local_window_size = private unnamed_addr constant [83 x i8] c"int nghttp2_increase_local_window_size(int32_t *, int32_t *, int32_t *, int32_t *)\00", align 1

; Function Attrs: inlinehint nounwind uwtable
define internal i32 @nghttp2_min_int32(i32 noundef %0, i32 noundef %1) #2 {
  %3 = alloca i32, align 4
  %4 = alloca i32, align 4
  store i32 %0, ptr %3, align 4, !tbaa !10
  store i32 %1, ptr %4, align 4, !tbaa !10
  %5 = load i32, ptr %3, align 4, !tbaa !10
  %6 = load i32, ptr %4, align 4, !tbaa !10
  %7 = icmp slt i32 %5, %6
  br i1 %7, label %8, label %10

8:                                                ; preds = %2
  %9 = load i32, ptr %3, align 4, !tbaa !10
  br label %12

10:                                               ; preds = %2
  %11 = load i32, ptr %4, align 4, !tbaa !10
  br label %12

12:                                               ; preds = %10, %8
  %13 = phi i32 [ %9, %8 ], [ %11, %10 ]
  ret i32 %13
}

; Function Attrs: nounwind uwtable
define hidden i32 @nghttp2_increase_local_window_size(ptr noundef %0, ptr noundef %1, ptr noundef %2, ptr noundef %3) #0 {
  %5 = alloca i32, align 4
  %6 = alloca ptr, align 8
  %7 = alloca ptr, align 8
  %8 = alloca ptr, align 8
  %9 = alloca ptr, align 8
  %10 = alloca i32, align 4
  %11 = alloca i32, align 4
  %12 = alloca i32, align 4
  store ptr %0, ptr %6, align 8, !tbaa !17
  store ptr %1, ptr %7, align 8, !tbaa !17
  store ptr %2, ptr %8, align 8, !tbaa !17
  store ptr %3, ptr %9, align 8, !tbaa !17
  call void @llvm.lifetime.start.p0(i64 4, ptr %10) #5
  call void @llvm.lifetime.start.p0(i64 4, ptr %11) #5
  %13 = load ptr, ptr %9, align 8, !tbaa !17
  %14 = load i32, ptr %13, align 4, !tbaa !10
  store i32 %14, ptr %11, align 4, !tbaa !10
  %15 = load i32, ptr %11, align 4, !tbaa !10
  %16 = icmp sge i32 %15, 0
  br i1 %16, label %17, label %18

17:                                               ; preds = %4
  br label %19

18:                                               ; preds = %4
  call void @__assert_fail(ptr noundef @.str, ptr noundef @.str.1, i32 noundef 225, ptr noundef @__PRETTY_FUNCTION__.nghttp2_increase_local_window_size) #6
  unreachable

19:                                               ; preds = %17
  %20 = load ptr, ptr %6, align 8, !tbaa !17
  %21 = load i32, ptr %20, align 4, !tbaa !10
  %22 = load i32, ptr %11, align 4, !tbaa !10
  %23 = sub nsw i32 2147483647, %22
  %24 = icmp sgt i32 %21, %23
  br i1 %24, label %25, label %26

25:                                               ; preds = %19
  store i32 -524, ptr %5, align 4
  store i32 1, ptr %12, align 4
  br label %47

26:                                               ; preds = %19
  %27 = load i32, ptr %11, align 4, !tbaa !10
  %28 = load ptr, ptr %6, align 8, !tbaa !17
  %29 = load i32, ptr %28, align 4, !tbaa !10
  %30 = add nsw i32 %29, %27
  store i32 %30, ptr %28, align 4, !tbaa !10
  %31 = load ptr, ptr %8, align 8, !tbaa !17
  %32 = load i32, ptr %31, align 4, !tbaa !10
  %33 = load i32, ptr %11, align 4, !tbaa !10
  %34 = call i32 @nghttp2_min_int32(i32 noundef %32, i32 noundef %33)
  store i32 %34, ptr %10, align 4, !tbaa !10
  %35 = load i32, ptr %10, align 4, !tbaa !10
  %36 = load ptr, ptr %8, align 8, !tbaa !17
  %37 = load i32, ptr %36, align 4, !tbaa !10
  %38 = sub nsw i32 %37, %35
  store i32 %38, ptr %36, align 4, !tbaa !10
  %39 = load i32, ptr %10, align 4, !tbaa !10
  %40 = load ptr, ptr %7, align 8, !tbaa !17
  %41 = load i32, ptr %40, align 4, !tbaa !10
  %42 = add nsw i32 %41, %39
  store i32 %42, ptr %40, align 4, !tbaa !10
  %43 = load i32, ptr %10, align 4, !tbaa !10
  %44 = load ptr, ptr %9, align 8, !tbaa !17
  %45 = load i32, ptr %44, align 4, !tbaa !10
  %46 = sub nsw i32 %45, %43
  store i32 %46, ptr %44, align 4, !tbaa !10
  store i32 0, ptr %5, align 4
  store i32 1, ptr %12, align 4
  br label %47

47:                                               ; preds = %26, %25
  call void @llvm.lifetime.end.p0(i64 4, ptr %11) #5
  call void @llvm.lifetime.end.p0(i64 4, ptr %10) #5
  %48 = load i32, ptr %5, align 4
  ret i32 %48
}