; Function Attrs: nounwind uwtable
define hidden range(i32 -524, 1) i32 @nghttp2_increase_local_window_size(ptr noundef captures(none) %0, ptr noundef captures(none) %1, ptr noundef captures(none) %2, ptr noundef captures(none) %3) local_unnamed_addr #5 {
  %5 = load i32, ptr %3, align 4, !tbaa !8
  %6 = icmp sgt i32 %5, -1
  br i1 %6, label %8, label %7

7:                                                ; preds = %4
  tail call void @__assert_fail(ptr noundef nonnull @.str, ptr noundef nonnull @.str.1, i32 noundef 225, ptr noundef nonnull @__PRETTY_FUNCTION__.nghttp2_increase_local_window_size) #10
  unreachable

8:                                                ; preds = %4
  %9 = load i32, ptr %0, align 4, !tbaa !8
  %10 = sub nuw nsw i32 2147483647, %5
  %11 = icmp sgt i32 %9, %10
  br i1 %11, label %21, label %12

12:                                               ; preds = %8
  %13 = add nsw i32 %9, %5
  store i32 %13, ptr %0, align 4, !tbaa !8
  %14 = load i32, ptr %2, align 4, !tbaa !8
  %15 = tail call noundef i32 @llvm.smin.i32(i32 %14, i32 range(i32 0, -2147483648) %5)
  %16 = sub nsw i32 %14, %15
  store i32 %16, ptr %2, align 4, !tbaa !8
  %17 = load i32, ptr %1, align 4, !tbaa !8
  %18 = add nsw i32 %17, %15
  store i32 %18, ptr %1, align 4, !tbaa !8
  %19 = load i32, ptr %3, align 4, !tbaa !8
  %20 = sub nsw i32 %19, %15
  store i32 %20, ptr %3, align 4, !tbaa !8
  br label %21

21:                                               ; preds = %8, %12
  %.0 = phi i32 [ 0, %12 ], [ -524, %8 ]
  ret i32 %.0
}